; Function Attrs: mustprogress nounwind uwtable
define internal void @_ZL22AddPointerLayoutOffsetRKN5clang7CodeGen13CodeGenModuleERNS0_20ConstantArrayBuilderENS_9CharUnitsE(ptr noundef nonnull readonly align 8 captures(none) dereferenceable(3600) %0, ptr noundef nonnull readonly align 8 captures(none) dereferenceable(56) %1, i64 %2) unnamed_addr #0 {
  %4 = getelementptr inbounds nuw i8, ptr %0, i64 88
  %5 = load ptr, ptr %4, align 8
  %6 = tail call noundef ptr @_ZN4llvm11ConstantInt3getEPNS_11IntegerTypeEmb(ptr noundef %5, i64 noundef %2, i1 noundef zeroext false) #17
  %7 = getelementptr inbounds nuw i8, ptr %0, i64 112
  %8 = load ptr, ptr %7, align 8
  %9 = tail call noundef ptr @_ZN4llvm12ConstantExpr11getIntToPtrEPNS_8ConstantEPNS_4TypeEb(ptr noundef %6, ptr noundef %8, i1 noundef zeroext false) #17
  %10 = load ptr, ptr %1, align 8
  %11 = getelementptr inbounds nuw i8, ptr %10, i64 8
  %12 = tail call noundef i64 @_ZNK4llvm15SmallVectorBaseIjE4sizeEv(ptr noundef nonnull align 8 dereferenceable(16) %11) #17
  %13 = add i64 %12, 1
  %14 = tail call noundef i64 @_ZNK4llvm15SmallVectorBaseIjE8capacityEv(ptr noundef nonnull align 8 dereferenceable(16) %11) #17
  %.not.i.i.i.i = icmp ugt i64 %13, %14
  br i1 %.not.i.i.i.i, label %15, label %_ZN5clang7CodeGen28ConstantAggregateBuilderBase3addEPN4llvm8ConstantE.exit

15:                                               ; preds = %3
  %16 = getelementptr inbounds nuw i8, ptr %10, i64 24
  tail call void @_ZN4llvm15SmallVectorBaseIjE8grow_podEPvmm(ptr noundef nonnull align 8 dereferenceable(16) %11, ptr noundef nonnull %16, i64 noundef %13, i64 noundef 8) #17
  br label %_ZN5clang7CodeGen28ConstantAggregateBuilderBase3addEPN4llvm8ConstantE.exit

_ZN5clang7CodeGen28ConstantAggregateBuilderBase3addEPN4llvm8ConstantE.exit: ; preds = %3, %15
  %17 = load ptr, ptr %11, align 8
  %18 = tail call noundef i64 @_ZNK4llvm15SmallVectorBaseIjE4sizeEv(ptr noundef nonnull align 8 dereferenceable(16) %11) #17
  %19 = getelementptr inbounds ptr, ptr %17, i64 %18
  %20 = ptrtoint ptr %9 to i64
  store i64 %20, ptr %19, align 1
  %21 = tail call noundef i64 @_ZNK4llvm15SmallVectorBaseIjE4sizeEv(ptr noundef nonnull align 8 dereferenceable(16) %11) #17
  %22 = add i64 %21, 1
  tail call void @_ZN4llvm15SmallVectorBaseIjE8set_sizeEm(ptr noundef nonnull align 8 dereferenceable(16) %11, i64 noundef %22) #17
  ret void
}